target datalayout = "e-m:e-p270:32:32-p271:32:32-p272:64:64-i64:64-i128:128-f80:128-n8:16:32:64-S128"
target triple = "x86_64-pc-linux-gnu"

@.str = private unnamed_addr constant [68 x i8] c"../openssl/providers/implementations/encode_decode/encode_key2any.c\00", align 1
@__func__.dh_pki_priv_to_der = private unnamed_addr constant [19 x i8] c"dh_pki_priv_to_der\00", align 1

; Function Attrs: nounwind uwtable
define internal i32 @dh_pki_priv_to_der(ptr noundef %0, ptr noundef %1, ptr noundef %2) #0 {
  %4 = alloca i32, align 4
  %5 = alloca ptr, align 8
  %6 = alloca ptr, align 8
  %7 = alloca ptr, align 8
  %8 = alloca ptr, align 8
  %9 = alloca ptr, align 8
  %10 = alloca i32, align 4
  %11 = alloca i32, align 4
  store ptr %0, ptr %5, align 8, !tbaa !3
  store ptr %1, ptr %6, align 8, !tbaa !40
  store ptr %2, ptr %7, align 8, !tbaa !3
  call void @llvm.lifetime.start.p0(i64 8, ptr %8) #4
  store ptr null, ptr %8, align 8, !tbaa !42
  call void @llvm.lifetime.start.p0(i64 8, ptr %9) #4
  store ptr null, ptr %9, align 8, !tbaa !37
  call void @llvm.lifetime.start.p0(i64 4, ptr %10) #4
  %12 = load ptr, ptr %5, align 8, !tbaa !3
  %13 = call ptr @DH_get0_priv_key(ptr noundef %12)
  store ptr %13, ptr %8, align 8, !tbaa !42
  %14 = icmp eq ptr %13, null
  br i1 %14, label %15, label %16

15:                                               ; preds = %3
  call void @ERR_new()
  call void @ERR_set_debug(ptr noundef @.str, i32 noundef 517, ptr noundef @__func__.dh_pki_priv_to_der)
  call void (i32, i32, ptr, ...) @ERR_set_error(i32 noundef 57, i32 noundef 221, ptr noundef null)
  store i32 0, ptr %4, align 4
  store i32 1, ptr %11, align 4
  br label %27

16:                                               ; preds = %3
  %17 = load ptr, ptr %8, align 8, !tbaa !42
  %18 = call ptr @BN_to_ASN1_INTEGER(ptr noundef %17, ptr noundef null)
  store ptr %18, ptr %9, align 8, !tbaa !37
  %19 = icmp eq ptr %18, null
  br i1 %19, label %20, label %21

20:                                               ; preds = %16
  call void @ERR_new()
  call void @ERR_set_debug(ptr noundef @.str, i32 noundef 521, ptr noundef @__func__.dh_pki_priv_to_der)
  call void (i32, i32, ptr, ...) @ERR_set_error(i32 noundef 57, i32 noundef 160, ptr noundef null)
  store i32 0, ptr %4, align 4
  store i32 1, ptr %11, align 4
  br label %27

21:                                               ; preds = %16
  %22 = load ptr, ptr %9, align 8, !tbaa !37
  %23 = load ptr, ptr %6, align 8, !tbaa !40
  %24 = call i32 @i2d_ASN1_INTEGER(ptr noundef %22, ptr noundef %23)
  store i32 %24, ptr %10, align 4, !tbaa !25
  %25 = load ptr, ptr %9, align 8, !tbaa !37
  call void @ASN1_STRING_clear_free(ptr noundef %25)
  %26 = load i32, ptr %10, align 4, !tbaa !25
  store i32 %26, ptr %4, align 4
  store i32 1, ptr %11, align 4
  br label %27

27:                                               ; preds = %21, %20, %15
  call void @llvm.lifetime.end.p0(i64 4, ptr %10) #4
  call void @llvm.lifetime.end.p0(i64 8, ptr %9) #4
  call void @llvm.lifetime.end.p0(i64 8, ptr %8) #4
  %28 = load i32, ptr %4, align 4
  ret i32 %28
}